target datalayout = "e-m:e-p270:32:32-p271:32:32-p272:64:64-i64:64-i128:128-f80:128-n8:16:32:64-S128"
target triple = "x86_64-pc-linux-gnu"

%struct.tmp_dh_callback_args = type { i64, i64, i32, i32, i32 }

@id_call = internal global i64 0, align 8

; Function Attrs: inlinehint nounwind sspstrong willreturn memory(none) uwtable
define internal i64 @RB_INT2FIX(i64 noundef %0) #9 {
  %2 = alloca i64, align 8
  %3 = alloca i64, align 8
  %4 = alloca i64, align 8
  %5 = alloca i64, align 8
  %6 = alloca i64, align 8
  %7 = alloca i64, align 8
  store i64 %0, ptr %2, align 8, !tbaa !14
  call void @llvm.lifetime.start.p0(i64 8, ptr %3) #20
  %8 = load i64, ptr %2, align 8, !tbaa !14
  store i64 %8, ptr %3, align 8, !tbaa !14
  call void @llvm.lifetime.start.p0(i64 8, ptr %4) #20
  %9 = load i64, ptr %3, align 8, !tbaa !14
  %10 = shl i64 %9, 1
  %11 = add i64 %10, 1
  store i64 %11, ptr %4, align 8, !tbaa !14
  call void @llvm.lifetime.start.p0(i64 8, ptr %5) #20
  %12 = load i64, ptr %4, align 8, !tbaa !14
  store i64 %12, ptr %5, align 8, !tbaa !14
  call void @llvm.lifetime.start.p0(i64 8, ptr %6) #20
  %13 = load i64, ptr %5, align 8, !tbaa !14
  store i64 %13, ptr %6, align 8, !tbaa !14
  call void @llvm.lifetime.start.p0(i64 8, ptr %7) #20
  %14 = load i64, ptr %6, align 8, !tbaa !14
  store i64 %14, ptr %7, align 8, !tbaa !14
  %15 = load i64, ptr %7, align 8, !tbaa !14
  call void @llvm.lifetime.end.p0(i64 8, ptr %7) #20
  call void @llvm.lifetime.end.p0(i64 8, ptr %6) #20
  call void @llvm.lifetime.end.p0(i64 8, ptr %5) #20
  call void @llvm.lifetime.end.p0(i64 8, ptr %4) #20
  call void @llvm.lifetime.end.p0(i64 8, ptr %3) #20
  ret i64 %15
}

; Function Attrs: inlinehint nounwind sspstrong uwtable
define internal i64 @rb_int2num_inline(i32 noundef %0) #4 {
  %2 = alloca i64, align 8
  %3 = alloca i32, align 4
  store i32 %0, ptr %3, align 4, !tbaa !12
  %4 = load i32, ptr %3, align 4, !tbaa !12
  %5 = sext i32 %4 to i64
  %6 = icmp slt i64 %5, 4611686018427387904
  br i1 %6, label %7, label %15

7:                                                ; preds = %1
  %8 = load i32, ptr %3, align 4, !tbaa !12
  %9 = sext i32 %8 to i64
  %10 = icmp sge i64 %9, -4611686018427387904
  br i1 %10, label %11, label %15

11:                                               ; preds = %7
  %12 = load i32, ptr %3, align 4, !tbaa !12
  %13 = sext i32 %12 to i64
  %14 = call i64 @RB_INT2FIX(i64 noundef %13) #23
  store i64 %14, ptr %2, align 8
  br label %19

15:                                               ; preds = %7, %1
  %16 = load i32, ptr %3, align 4, !tbaa !12
  %17 = sext i32 %16 to i64
  %18 = call i64 @rb_int2big(i64 noundef %17)
  store i64 %18, ptr %2, align 8
  br label %19

19:                                               ; preds = %15, %11
  %20 = load i64, ptr %2, align 8
  ret i64 %20
}

; Function Attrs: inlinehint nounwind sspstrong willreturn memory(none) uwtable
define internal zeroext i1 @RB_NIL_P(i64 noundef %0) #9 {
  %2 = alloca i64, align 8
  store i64 %0, ptr %2, align 8, !tbaa !14
  %3 = load i64, ptr %2, align 8, !tbaa !14
  %4 = icmp eq i64 %3, 4
  ret i1 %4
}

; Function Attrs: nounwind sspstrong uwtable
define internal i64 @ossl_call_tmp_dh_callback(i64 noundef %0) #0 {
  %2 = alloca i64, align 8
  %3 = alloca i64, align 8
  %4 = alloca ptr, align 8
  %5 = alloca i64, align 8
  %6 = alloca i64, align 8
  %7 = alloca ptr, align 8
  %8 = alloca i32, align 4
  store i64 %0, ptr %3, align 8, !tbaa !14
  call void @llvm.lifetime.start.p0(i64 8, ptr %4) #20
  %9 = load i64, ptr %3, align 8, !tbaa !14
  %10 = inttoptr i64 %9 to ptr
  store ptr %10, ptr %4, align 8, !tbaa !89
  call void @llvm.lifetime.start.p0(i64 8, ptr %5) #20
  call void @llvm.lifetime.start.p0(i64 8, ptr %6) #20
  call void @llvm.lifetime.start.p0(i64 8, ptr %7) #20
  %11 = load ptr, ptr %4, align 8, !tbaa !89
  %12 = getelementptr inbounds nuw %struct.tmp_dh_callback_args, ptr %11, i32 0, i32 0
  %13 = load i64, ptr %12, align 8, !tbaa !67
  %14 = load ptr, ptr %4, align 8, !tbaa !89
  %15 = getelementptr inbounds nuw %struct.tmp_dh_callback_args, ptr %14, i32 0, i32 1
  %16 = load i64, ptr %15, align 8, !tbaa !69
  %17 = call i64 (i64, i64, i32, ...) @rb_funcall(i64 noundef %13, i64 noundef %16, i32 noundef 0)
  store i64 %17, ptr %5, align 8, !tbaa !14
  %18 = load i64, ptr %5, align 8, !tbaa !14
  %19 = call zeroext i1 @RB_NIL_P(i64 noundef %18) #23
  br i1 %19, label %20, label %21

20:                                               ; preds = %1
  store i64 0, ptr %2, align 8
  store i32 1, ptr %8, align 4
  br label %48

21:                                               ; preds = %1
  %22 = load i64, ptr %5, align 8, !tbaa !14
  %23 = load i64, ptr @id_call, align 8, !tbaa !14
  %24 = load ptr, ptr %4, align 8, !tbaa !89
  %25 = getelementptr inbounds nuw %struct.tmp_dh_callback_args, ptr %24, i32 0, i32 0
  %26 = load i64, ptr %25, align 8, !tbaa !67
  %27 = load ptr, ptr %4, align 8, !tbaa !89
  %28 = getelementptr inbounds nuw %struct.tmp_dh_callback_args, ptr %27, i32 0, i32 3
  %29 = load i32, ptr %28, align 4, !tbaa !70
  %30 = call i64 @rb_int2num_inline(i32 noundef %29)
  %31 = load ptr, ptr %4, align 8, !tbaa !89
  %32 = getelementptr inbounds nuw %struct.tmp_dh_callback_args, ptr %31, i32 0, i32 4
  %33 = load i32, ptr %32, align 8, !tbaa !71
  %34 = call i64 @rb_int2num_inline(i32 noundef %33)
  %35 = call i64 (i64, i64, i32, ...) @rb_funcall(i64 noundef %22, i64 noundef %23, i32 noundef 3, i64 noundef %26, i64 noundef %30, i64 noundef %34)
  store i64 %35, ptr %6, align 8, !tbaa !14
  %36 = load i64, ptr %6, align 8, !tbaa !14
  %37 = call ptr @GetPKeyPtr(i64 noundef %36)
  store ptr %37, ptr %7, align 8, !tbaa !30
  %38 = load ptr, ptr %7, align 8, !tbaa !30
  %39 = call i32 @EVP_PKEY_get_base_id(ptr noundef %38)
  %40 = load ptr, ptr %4, align 8, !tbaa !89
  %41 = getelementptr inbounds nuw %struct.tmp_dh_callback_args, ptr %40, i32 0, i32 2
  %42 = load i32, ptr %41, align 8, !tbaa !72
  %43 = icmp ne i32 %39, %42
  br i1 %43, label %44, label %45

44:                                               ; preds = %21
  store i64 0, ptr %2, align 8
  store i32 1, ptr %8, align 4
  br label %48

45:                                               ; preds = %21
  %46 = load ptr, ptr %7, align 8, !tbaa !30
  %47 = ptrtoint ptr %46 to i64
  store i64 %47, ptr %2, align 8
  store i32 1, ptr %8, align 4
  br label %48

48:                                               ; preds = %45, %44, %20
  call void @llvm.lifetime.end.p0(i64 8, ptr %7) #20
  call void @llvm.lifetime.end.p0(i64 8, ptr %6) #20
  call void @llvm.lifetime.end.p0(i64 8, ptr %5) #20
  call void @llvm.lifetime.end.p0(i64 8, ptr %4) #20
  %49 = load i64, ptr %2, align 8
  ret i64 %49
}