; Function Attrs: nounwind sspstrong uwtable
define internal i64 @ossl_call_tmp_dh_callback(i64 noundef %0) #0 {
  %2 = inttoptr i64 %0 to ptr
  %3 = load i64, ptr %2, align 8, !tbaa !66
  %4 = getelementptr inbounds nuw i8, ptr %2, i64 8
  %5 = load i64, ptr %4, align 8, !tbaa !68
  %6 = tail call i64 (i64, i64, i32, ...) @rb_funcall(i64 noundef %3, i64 noundef %5, i32 noundef 0) #9
  %7 = icmp eq i64 %6, 4
  br i1 %7, label %27, label %8

8:                                                ; preds = %1
  %9 = load i64, ptr @id_call, align 8, !tbaa !10
  %10 = load i64, ptr %2, align 8, !tbaa !66
  %11 = getelementptr inbounds nuw i8, ptr %2, i64 20
  %12 = load i32, ptr %11, align 4, !tbaa !69
  %13 = sext i32 %12 to i64
  %14 = shl nsw i64 %13, 1
  %15 = or disjoint i64 %14, 1
  %16 = getelementptr inbounds nuw i8, ptr %2, i64 24
  %17 = load i32, ptr %16, align 8, !tbaa !70
  %18 = sext i32 %17 to i64
  %19 = shl nsw i64 %18, 1
  %20 = or disjoint i64 %19, 1
  %21 = tail call i64 (i64, i64, i32, ...) @rb_funcall(i64 noundef %6, i64 noundef %9, i32 noundef 3, i64 noundef %10, i64 noundef %15, i64 noundef %20) #9
  %22 = tail call ptr @GetPKeyPtr(i64 noundef %21) #9
  %23 = tail call i32 @EVP_PKEY_get_base_id(ptr noundef %22) #9
  %24 = getelementptr inbounds nuw i8, ptr %2, i64 16
  %25 = load i32, ptr %24, align 8, !tbaa !71
  %.not = icmp eq i32 %23, %25
  %26 = ptrtoint ptr %22 to i64
  %spec.select = select i1 %.not, i64 %26, i64 0
  br label %27

27:                                               ; preds = %8, %1
  %.0 = phi i64 [ 0, %1 ], [ %spec.select, %8 ]
  ret i64 %.0
}